; Function Attrs: mustprogress uwtable
define hidden noundef ptr @_ZN5stack12allocate_bigEm(ptr noundef nonnull align 8 dereferenceable(32) %0, i64 noundef %1) local_unnamed_addr #3 align 2 {
  %3 = tail call noalias noundef ptr @_ZN6memory8allocateEm(i64 noundef %1)
  %4 = getelementptr inbounds nuw i8, ptr %0, i64 8
  %5 = load ptr, ptr %4, align 8, !tbaa !12
  %6 = getelementptr inbounds nuw i8, ptr %5, i64 8
  %7 = getelementptr inbounds nuw i8, ptr %0, i64 16
  %8 = load ptr, ptr %7, align 8, !tbaa !9
  %9 = icmp ult ptr %6, %8
  br i1 %9, label %19, label %10

10:                                               ; preds = %2
  %11 = getelementptr inbounds i8, ptr %5, i64 -8
  %12 = load i64, ptr %11, align 8, !tbaa !10
  %13 = load ptr, ptr %0, align 8, !tbaa !3
  %14 = getelementptr inbounds nuw i8, ptr %0, i64 24
  %15 = tail call noundef ptr @_Z21allocate_default_pagePcRS_(ptr noundef %13, ptr noundef nonnull align 8 dereferenceable(8) %14)
  store ptr %15, ptr %0, align 8, !tbaa !3
  %16 = getelementptr inbounds nuw i8, ptr %15, i64 8184
  store ptr %16, ptr %7, align 8, !tbaa !9
  store i64 %12, ptr %15, align 8, !tbaa !10
  %17 = getelementptr inbounds nuw i8, ptr %15, i64 8
  %18 = getelementptr inbounds nuw i8, ptr %15, i64 16
  br label %19

19:                                               ; preds = %10, %2
  %.sink.i = phi ptr [ %18, %10 ], [ %6, %2 ]
  %20 = phi ptr [ %16, %10 ], [ %8, %2 ]
  %.0.i = phi ptr [ %17, %10 ], [ %5, %2 ]
  %21 = ptrtoint ptr %.sink.i to i64
  %22 = and i64 %21, 7
  %.not.i = icmp eq i64 %22, 0
  %23 = select i1 %.not.i, i64 0, i64 8
  %24 = add i64 %23, %21
  %storemerge.in.i = and i64 %24, -8
  %storemerge.i = inttoptr i64 %storemerge.in.i to ptr
  store ptr %storemerge.i, ptr %4, align 8, !tbaa !12
  %25 = getelementptr inbounds nuw i8, ptr %storemerge.i, i64 8
  %26 = icmp ugt ptr %25, %20
  %27 = ptrtoint ptr %.0.i to i64
  %28 = or i64 %27, 1
  br i1 %26, label %29, label %35

29:                                               ; preds = %19
  %30 = load ptr, ptr %0, align 8, !tbaa !3
  %31 = getelementptr inbounds nuw i8, ptr %0, i64 24
  %32 = tail call noundef ptr @_Z21allocate_default_pagePcRS_(ptr noundef %30, ptr noundef nonnull align 8 dereferenceable(8) %31)
  store ptr %32, ptr %0, align 8, !tbaa !3
  %33 = getelementptr inbounds nuw i8, ptr %32, i64 8184
  store ptr %33, ptr %7, align 8, !tbaa !9
  store i64 %28, ptr %32, align 8, !tbaa !10
  %34 = getelementptr inbounds nuw i8, ptr %32, i64 8
  br label %_ZN5stack14allocate_smallEmb.exit

35:                                               ; preds = %19
  store i64 %28, ptr %storemerge.i, align 8, !tbaa !10
  br label %_ZN5stack14allocate_smallEmb.exit

_ZN5stack14allocate_smallEmb.exit:                ; preds = %29, %35
  %storemerge.i.i = phi ptr [ %25, %35 ], [ %34, %29 ]
  store ptr %storemerge.i.i, ptr %4, align 8, !tbaa !12
  store ptr %3, ptr %.0.i, align 8, !tbaa !13
  ret ptr %3
}